; Function Attrs: nounwind uwtable
define internal ptr @Example_demo(ptr readnone captures(none) %0, ptr noundef %1) #0 {
  %3 = alloca ptr, align 8
  call void @llvm.lifetime.start.p0(i64 8, ptr nonnull %3) #4
  store ptr null, ptr %3, align 8, !tbaa !3
  %4 = call i32 (ptr, ptr, ...) @PyArg_ParseTuple(ptr noundef %1, ptr noundef nonnull @.str.26, ptr noundef nonnull %3) #4
  %.not = icmp eq i32 %4, 0
  br i1 %.not, label %_Py_NewRef.exit, label %5

5:                                                ; preds = %2
  %6 = load ptr, ptr %3, align 8, !tbaa !3
  %.not3 = icmp eq ptr %6, null
  br i1 %.not3, label %_Py_NewRef.exit, label %7

7:                                                ; preds = %5
  %8 = getelementptr i8, ptr %6, i64 8
  %.val = load ptr, ptr %8, align 8, !tbaa !19
  %9 = getelementptr i8, ptr %.val, i64 168
  %.val5 = load i64, ptr %9, align 8, !tbaa !20
  %10 = and i64 %.val5, 268435456
  %.not4 = icmp eq i64 %10, 0
  br i1 %.not4, label %_Py_NewRef.exit, label %11

11:                                               ; preds = %7
  %12 = load i32, ptr %6, align 8, !tbaa !8
  %13 = icmp slt i32 %12, 0
  br i1 %13, label %_Py_NewRef.exit, label %14

14:                                               ; preds = %11
  %15 = add nuw i32 %12, 1
  store i32 %15, ptr %6, align 8, !tbaa !8
  br label %_Py_NewRef.exit

_Py_NewRef.exit:                                  ; preds = %14, %11, %5, %7, %2
  %.0 = phi ptr [ null, %2 ], [ @_Py_NoneStruct, %7 ], [ @_Py_NoneStruct, %5 ], [ %6, %11 ], [ %6, %14 ]
  call void @llvm.lifetime.end.p0(i64 8, ptr nonnull %3) #4
  ret ptr %.0
}